; Function Attrs: mustprogress nofree norecurse nosync nounwind willreturn memory(argmem: readwrite, inaccessiblemem: readwrite) uwtable
define hidden void @_ZNK6hermes2vm7HadesGC6OldGen5beginEv(ptr noalias nocapture writeonly sret(%"struct.std::_Deque_iterator.135") align 8 %agg.result, ptr nocapture noundef nonnull readonly align 8 dereferenceable(6672) %this) local_unnamed_addr #13 align 2 {
entry:
  tail call void @llvm.experimental.noalias.scope.decl(metadata !193)
  %_M_start.i = getelementptr inbounds i8, ptr %this, i64 24
  %0 = load <2 x ptr>, ptr %_M_start.i, align 8, !noalias !193
  store <2 x ptr> %0, ptr %agg.result, align 8, !alias.scope !193
  %_M_last.i.i = getelementptr inbounds i8, ptr %agg.result, i64 16
  %_M_last4.i.i = getelementptr inbounds i8, ptr %this, i64 40
  %1 = load <2 x ptr>, ptr %_M_last4.i.i, align 8, !noalias !193
  store <2 x ptr> %1, ptr %_M_last.i.i, align 8, !alias.scope !193
  ret void
}